((lp0
F1.0333333333333334
aF1.0666666666666667
aF1.1
aF1.1333333333333333
aF1.1666666666666667
aF1.2
aF1.2333333333333334
aF1.2666666666666666
aF1.3
aF1.3333333333333333
aF1.3666666666666667
aF1.4
aF1.4333333333333333
aF1.4666666666666668
aF1.5
aF1.5333333333333332
aF1.5666666666666667
aF1.6
aF1.6333333333333333
aF1.6666666666666665
aF1.7
aF1.7333333333333334
aF1.7666666666666666
aF1.8
aF1.8333333333333335
aF1.8666666666666667
aF1.9
aF1.9333333333333333
aF1.9666666666666668
a(lp1
F0.3358176170927295
aF0.35935937079469027
aF0.256696472153748
aF0.2372665040242838
aF0.1818453867311895
aF0.15227521142394304
aF0.14409575867394325
aF0.09210630417950155
aF0.11042171145582211
aF0.05449245417039561
aF0.024005460052524633
aF0.015493460473143419
aF0.018809733144009678
aF0.01133586325391665
aF0.004573515331719688
aF0.0031526873470445957
aF0.0021732790811208836
aF0.003970163094044554
aF0.005659438543452075
aF0.002887123342793471
aF0.003287239035649342
aF0.0033082350938517476
aF0.0028053300975068663
aF0.004331405552877265
aF0.003255332494769292
aF0.0022656119212962613
aF0.002530598904190594
aF0.0018936071127752467
aF0.002439541186489015
atp2
.