((lp0
F1.0333333333333334
aF1.0666666666666667
aF1.1
aF1.1333333333333333
aF1.1666666666666667
aF1.2
aF1.2333333333333334
aF1.2666666666666666
aF1.3
aF1.3333333333333333
aF1.3666666666666667
aF1.4
aF1.4333333333333333
aF1.4666666666666668
aF1.5
aF1.5333333333333332
aF1.5666666666666667
aF1.6
aF1.6333333333333333
aF1.6666666666666665
aF1.7
aF1.7333333333333334
aF1.7666666666666666
aF1.8
aF1.8333333333333335
aF1.8666666666666667
aF1.9
aF1.9333333333333333
aF1.9666666666666668
a(lp1
F0.3425793762958631
aF0.38244497155821267
aF0.26755303049234874
aF0.28866287985951794
aF0.2612004348970024
aF0.19392119614218492
aF0.20342394968395738
aF0.19934894242316803
aF0.0703147289318564
aF0.12752223550857095
aF0.077643004705615
aF0.046127716854424294
aF0.013351586940265983
aF0.0027958608987628747
aF0.003347904795043633
aF0.0027806234976960912
aF0.002014605324474888
aF0.0016940461178440416
aF0.0019545292678620485
aF0.0027387448056876698
aF0.002408226242486388
aF0.003418098687983849
aF0.002127379867977265
aF0.002154781221556258
aF0.001569484879424882
aF0.0016966165967316504
aF0.002461756269742662
aF0.002166622516010205
aF0.001194232011785943
atp2
.