((lp0
F1.0333333333333334
aF1.0666666666666667
aF1.1
aF1.1333333333333333
aF1.1666666666666667
aF1.2
aF1.2333333333333334
aF1.2666666666666666
aF1.3
aF1.3333333333333333
aF1.3666666666666667
aF1.4
aF1.4333333333333333
aF1.4666666666666668
aF1.5
aF1.5333333333333332
aF1.5666666666666667
aF1.6
aF1.6333333333333333
aF1.6666666666666665
aF1.7
aF1.7333333333333334
aF1.7666666666666666
aF1.8
aF1.8333333333333335
aF1.8666666666666667
aF1.9
aF1.9333333333333333
aF1.9666666666666668
a(lp1
F0.34174757696872593
aF0.3115624729113485
aF0.2902660385995425
aF0.26270642194227345
aF0.2097980050657114
aF0.20216683090631435
aF0.18285376742555332
aF0.1512688440485829
aF0.08637822185652291
aF0.08388711817741593
aF0.08025997260280246
aF0.03037806503631953
aF0.028240448075673764
aF0.020486258417764008
aF0.017593458761926188
aF0.008524762553985168
aF0.004345535654426591
aF0.0050613463188238575
aF0.005499836055218593
aF0.004337595387461576
aF0.00416092232860944
aF0.00928817934917277
aF0.004317534704251769
aF0.003186103679671552
aF0.003161505824780599
aF0.0016351692274310786
aF0.002886004840650816
aF0.00282832149306433
aF0.005299020779340689
atp2
.