((lp0
F1.0333333333333334
aF1.0666666666666667
aF1.1
aF1.1333333333333333
aF1.1666666666666667
aF1.2
aF1.2333333333333334
aF1.2666666666666666
aF1.3
aF1.3333333333333333
aF1.3666666666666667
aF1.4
aF1.4333333333333333
aF1.4666666666666668
aF1.5
aF1.5333333333333332
aF1.5666666666666667
aF1.6
aF1.6333333333333333
aF1.6666666666666665
aF1.7
aF1.7333333333333334
aF1.7666666666666666
aF1.8
aF1.8333333333333335
aF1.8666666666666667
aF1.9
aF1.9333333333333333
aF1.9666666666666668
a(lp1
F0.3106524087468668
aF0.25349759285932294
aF0.30224384685358874
aF0.2529300509961757
aF0.2110659898843233
aF0.1867171856514906
aF0.12106553758804499
aF0.1146200796686816
aF0.10632410280678659
aF0.09592734557156365
aF0.031184749683117026
aF0.032112152194362475
aF0.01983784214988845
aF0.028503279115455044
aF0.022803738386728292
aF0.013873639704626397
aF0.0017272928227837034
aF0.00609724127638491
aF0.003318399682980208
aF0.006448488037041249
aF0.0032223045038295072
aF0.004975503951723831
aF0.005016123062816815
aF0.002823633911669613
aF0.006788092864479645
aF0.0037781314519847444
aF0.0022881846072644848
aF0.0023955250362283176
aF0.0035985758397969634
atp2
.