(lp0
F0.12803107837608915
aF0.12961550553857107
aF0.1312981421209316
aF0.13162063676511848
aF0.13202659000398909
aF0.13297929830297928
aF0.13414596471503534
aF0.13460395929315747
aF0.1352492457751436
aF0.13551070906724275
aF0.13588456221028763
aF0.136224816095648
aF0.13664188742227548
aF0.13726863182626386
aF0.1386405778025082
aF0.1391197565026138
aF0.13945746228268865
aF0.14012165316851583
aF0.14053300895885287
aF0.1408536787525272
aF0.14111096291169
aF0.14132640203080718
aF0.14154192571919996
aF0.14197702707079551
aF0.14222958682192993
aF0.14248527644696496
aF0.142625370344684
aF0.1430285609646721
aF0.1433518923809892
aF0.1434815424932774
aF0.14368852745855515
aF0.14394901790660292
aF0.1444516685943463
aF0.14534311325240945
aF0.14550232881152786
aF0.14560182547008613
aF0.1460605577564239
aF0.1466891334405238
aF0.14721845264568892
aF0.14805762382480753
aF0.14896310891033715
aF0.14909869622367206
aF0.14942310574363388
aF0.1497831592008989
aF0.1503822160218498
aF0.1507353912741719
aF0.15106667525539638
aF0.1516804298609416
aF0.1519300907930015
aF0.15242214770063608
a.