(lp0
F0.12909033903104344
aF0.12947178477127
aF0.13060403921139632
aF0.1308271915314827
aF0.13111831816607436
aF0.13224139902396115
aF0.13240903938226117
aF0.13312670013918454
aF0.13335808756208942
aF0.1335716795080224
aF0.1339465351839066
aF0.13462206206610697
aF0.13505908822863918
aF0.13534066190644797
aF0.13551093167292327
aF0.13569636389283796
aF0.13587992647422356
aF0.13590853671231623
aF0.13611663041268998
aF0.1364248076521001
aF0.13661379286366993
aF0.1370819237324513
aF0.1372144494240745
aF0.13741700829364517
aF0.13761425703933483
aF0.13795731081696486
aF0.13862480248478962
aF0.13882069720491058
aF0.13949941748551736
aF0.1396881847268095
aF0.13978871696206097
aF0.13986002096619451
aF0.14020162716174492
aF0.14039522226750267
aF0.14065437179445478
aF0.1408566720900087
aF0.1412618835655128
aF0.1413980771689061
aF0.14158161122706303
aF0.14207297296319057
aF0.14229810043670127
aF0.14250843917709427
aF0.14261153353278955
aF0.14302836272266312
aF0.1433463908852949
aF0.14349391059046165
aF0.14372321562943013
aF0.14384487678058436
aF0.14414713191109596
aF0.14432848735043755
a.