(lp0
(I180
I359
tp1
a(I359
I559
tp2
a(I156
I359
tp3
a(I336
I359
tp4
a(I359
I690
tp5
a(I344
I359
tp6
a(I359
I551
tp7
a(I284
I359
tp8
a(I14
I359
tp9
a(I263
I359
tp10
a(I225
I359
tp11
a(I96
I359
tp12
a(I126
I359
tp13
a(I282
I359
tp14
a(I359
I415
tp15
a(I359
I469
tp16
a(I359
I668
tp17
a(I359
I704
tp18
a(I255
I359
tp19
a(I359
I737
tp20
a(I132
I359
tp21
a(I359
I732
tp22
a(I359
I570
tp23
a(I359
I612
tp24
a(I359
I429
tp25
a(I38
I359
tp26
a(I133
I359
tp27
a(I359
I543
tp28
a(I116
I359
tp29
a(I77
I359
tp30
a(I62
I359
tp31
a(I169
I359
tp32
a(I258
I359
tp33
a(I359
I472
tp34
a(I222
I359
tp35
a(I289
I359
tp36
a(I359
I647
tp37
a(I359
I436
tp38
a(I359
I510
tp39
a(I330
I359
tp40
a(I359
I609
tp41
a(I359
I611
tp42
a(I359
I361
tp43
a(I359
I555
tp44
a(I48
I359
tp45
a(I359
I410
tp46
a(I323
I359
tp47
a(I359
I715
tp48
a(I205
I359
tp49
a(I359
I560
tp50
a.