((lp0
F1.02
aF1.04
aF1.06
aF1.08
aF1.1
aF1.12
aF1.1400000000000001
aF1.16
aF1.18
aF1.2
aF1.22
aF1.24
aF1.26
aF1.28
aF1.3
aF1.32
aF1.34
aF1.3599999999999999
aF1.38
aF1.4
aF1.42
aF1.44
aF1.46
aF1.48
aF1.5
aF1.52
aF1.54
aF1.56
aF1.58
aF1.6
aF1.62
aF1.6400000000000001
aF1.6600000000000001
aF1.6800000000000002
aF1.7000000000000002
aF1.72
aF1.74
aF1.76
aF1.78
aF1.8
aF1.82
aF1.8399999999999999
aF1.8599999999999999
aF1.88
aF1.9
aF1.92
aF1.94
aF1.96
aF1.98
a(lp1
F0.5456043204579946
aF0.5282714566094685
aF0.5015354068346509
aF0.5126411634414169
aF0.49183016304926025
aF0.5076791428177136
aF0.5441655386545254
aF0.5097554445098711
aF0.4882474413468979
aF0.489312975384831
aF0.4726268496218762
aF0.4608121262787933
aF0.40997686667044847
aF0.4024000125416209
aF0.43064159986726286
aF0.39367828591327136
aF0.3937560385111466
aF0.08107569731356314
aF0.30440079314988755
aF0.10351813591461771
aF0.09907498300443048
aF0.09266307799315879
aF0.1073151773897293
aF0.0850895630743469
aF0.08077860672010936
aF0.08412767236778515
aF0.09098916298540131
aF0.07953003033463785
aF0.07463444031214918
aF0.07462334609653061
aF0.07462334609653061
aF0.07462334609653061
aF0.07462334609653061
aF0.07456551749761875
aF0.07456551749761875
aF0.07456551749761875
aF0.07456551749761875
aF0.07455164972809551
aF0.07455164972809437
aF0.07455164972809437
aF0.07455164972809437
aF0.07455164972809437
aF0.07279676273946697
aF0.07279676273946697
aF0.07279676273946697
aF0.07279676273946697
aF0.07279676273946697
aF0.07279676273946697
aF0.07279676273946697
atp2
.