((lp0
F1.02
aF1.04
aF1.06
aF1.08
aF1.1
aF1.12
aF1.1400000000000001
aF1.16
aF1.18
aF1.2
aF1.22
aF1.24
aF1.26
aF1.28
aF1.3
aF1.32
aF1.34
aF1.3599999999999999
aF1.38
aF1.4
aF1.42
aF1.44
aF1.46
aF1.48
aF1.5
aF1.52
aF1.54
aF1.56
aF1.58
aF1.6
aF1.62
aF1.6400000000000001
aF1.6600000000000001
aF1.6800000000000002
aF1.7000000000000002
aF1.72
aF1.74
aF1.76
aF1.78
aF1.8
aF1.82
aF1.8399999999999999
aF1.8599999999999999
aF1.88
aF1.9
aF1.92
aF1.94
aF1.96
aF1.98
a(lp1
F0.634003028675912
aF0.6858753965689345
aF0.6380092482939413
aF0.5649357738258243
aF0.5548921541215245
aF0.551138610610291
aF0.5753913715931853
aF0.6117302092509318
aF0.5631055996759112
aF0.5242975813669953
aF0.507128842299501
aF0.5327002594855355
aF0.5070199747205468
aF0.4781018681253441
aF0.5048014924549714
aF0.48304138325291957
aF0.4664826789426377
aF0.4822866066932097
aF0.47054048219285216
aF0.4619601215883521
aF0.48271412119384244
aF0.4651497479310268
aF0.04954989561978202
aF0.046342140641844776
aF0.024903332542003782
aF0.024903332542003782
aF0.02302661549358961
aF0.024733153258909697
aF0.01954331997902884
aF0.01954331997902884
aF0.01951680837946816
aF0.014980043979565563
aF0.008984155916174392
aF0.008984155916174392
aF0.008984155916174392
aF0.008984155916174392
aF0.008984155916174392
aF0.008984155916174392
aF0.008984155916174392
aF0.008748066597046345
aF0.005893674565691471
aF0.005893674565691471
aF0.005893674565691471
aF0.005893674565691471
aF0.008173134606172965
aF0.008173134606172965
aF0.008173134606172965
aF0.008173134606172965
aF0.008173134606172965
atp2
.