((lp0
F1.02
aF1.04
aF1.06
aF1.08
aF1.1
aF1.12
aF1.1400000000000001
aF1.16
aF1.18
aF1.2
aF1.22
aF1.24
aF1.26
aF1.28
aF1.3
aF1.32
aF1.34
aF1.3599999999999999
aF1.38
aF1.4
aF1.42
aF1.44
aF1.46
aF1.48
aF1.5
aF1.52
aF1.54
aF1.56
aF1.58
aF1.6
aF1.62
aF1.6400000000000001
aF1.6600000000000001
aF1.6800000000000002
aF1.7000000000000002
aF1.72
aF1.74
aF1.76
aF1.78
aF1.8
aF1.82
aF1.8399999999999999
aF1.8599999999999999
aF1.88
aF1.9
aF1.92
aF1.94
aF1.96
aF1.98
a(lp1
F0.5738528230844109
aF0.6192120621200013
aF0.6328603215853311
aF0.5821278028741853
aF0.5238763009642776
aF0.49752651940618453
aF0.5003882503200078
aF0.5631819785844184
aF0.4834660823041546
aF0.4784701259045281
aF0.48339144868663925
aF0.47847367038761895
aF0.46464193745023624
aF0.47638705607651993
aF0.45732728284764496
aF0.4437858736104102
aF0.44494669925416913
aF0.4103361954993125
aF0.45329158458684243
aF0.41166686922824175
aF0.004829043799657664
aF0.004829043799657664
aF0.004829043799657664
aF0.004582097376191443
aF0.004582097376191443
aF0.004582097376191443
aF0.004582097376191443
aF0.004582097376191443
aF0.004582097376191443
aF0.004582097376191443
aF0.004582097376191443
aF0.004582097376191443
aF0.004582097376191443
aF0.004582097376191443
aF0.004582097376191443
aF0.004582097376191443
aF0.004582097376191443
aF0.004582097376191443
aF0.004582097376191443
aF0.004582097376191443
aF0.004446142575487466
aF0.004446142575487466
aF0.004446142575487466
aF0.004446142575487466
aF0.004446142575487466
aF0.004446142575487466
aF0.004446142575487466
aF0.004446142575487466
aF0.004446142575487466
atp2
.