((lp0
F1.02
aF1.04
aF1.06
aF1.08
aF1.1
aF1.12
aF1.1400000000000001
aF1.16
aF1.18
aF1.2
aF1.22
aF1.24
aF1.26
aF1.28
aF1.3
aF1.32
aF1.34
aF1.3599999999999999
aF1.38
aF1.4
aF1.42
aF1.44
aF1.46
aF1.48
aF1.5
aF1.52
aF1.54
aF1.56
aF1.58
aF1.6
aF1.62
aF1.6400000000000001
aF1.6600000000000001
aF1.6800000000000002
aF1.7000000000000002
aF1.72
aF1.74
aF1.76
aF1.78
aF1.8
aF1.82
aF1.8399999999999999
aF1.8599999999999999
aF1.88
aF1.9
aF1.92
aF1.94
aF1.96
aF1.98
a(lp1
F0.5384223160214792
aF0.4711598063455759
aF0.4699193632110972
aF0.4610118771216999
aF0.46891800295306113
aF0.4306174948602217
aF0.4421563954360378
aF0.46544093121343494
aF0.45576220154028435
aF0.46391811016660134
aF0.47272857113650224
aF0.46337422087350616
aF0.4545604358574962
aF0.4121118269904076
aF0.3844792999748953
aF0.3693897653327888
aF0.378417832669014
aF0.3581239848187339
aF0.37608016469327665
aF0.3328708245949593
aF0.34158335432686776
aF0.3002729053141049
aF0.3089488779659987
aF0.30329882324261626
aF0.3189635896502917
aF0.2736258559157139
aF0.26754541903814555
aF0.24948982076617693
aF0.12937575697117512
aF0.06614801171518722
aF0.05596201413917891
aF0.05525054387393195
aF0.049582247060314194
aF0.023113563035934523
aF0.018628474521080754
aF0.018628474521080754
aF0.01862847452108037
aF0.01862847452108037
aF0.022726667406692574
aF0.022726667406692574
aF0.022726667406705862
aF0.022726667406705862
aF0.022726667406705862
aF0.022726667406705862
aF0.022726667406705862
aF0.020651840093335212
aF0.013272446798749936
aF0.013272446798749936
aF0.013272446798749936
atp2
.